; Function Attrs: mustprogress uwtable
define hidden void @_ZN4ncnn4LSTMC2Ev(ptr noundef nonnull align 8 dereferenceable(664) %0) unnamed_addr #1 align 2 personality ptr @__gxx_personality_v0 {
  tail call void @_ZN4ncnn5LayerC2Ev(ptr noundef nonnull align 8 dereferenceable(208) %0)
  store ptr getelementptr inbounds nuw inrange(-16, 80) (i8, ptr @_ZTVN4ncnn4LSTME, i64 16), ptr %0, align 8, !tbaa !4
  %2 = getelementptr inbounds nuw i8, ptr %0, i64 232
  %3 = getelementptr inbounds nuw i8, ptr %0, i64 264
  %4 = getelementptr inbounds nuw i8, ptr %0, i64 296
  %5 = getelementptr inbounds nuw i8, ptr %0, i64 336
  %6 = getelementptr inbounds nuw i8, ptr %0, i64 368
  %7 = getelementptr inbounds nuw i8, ptr %0, i64 408
  %8 = getelementptr inbounds nuw i8, ptr %0, i64 440
  %9 = getelementptr inbounds nuw i8, ptr %0, i64 480
  %10 = getelementptr inbounds nuw i8, ptr %0, i64 512
  %11 = getelementptr inbounds nuw i8, ptr %0, i64 552
  %12 = getelementptr inbounds nuw i8, ptr %0, i64 584
  %13 = getelementptr inbounds nuw i8, ptr %0, i64 624
  %14 = getelementptr inbounds nuw i8, ptr %0, i64 656
  store i64 0, ptr %14, align 8, !tbaa !17
  %15 = getelementptr inbounds nuw i8, ptr %0, i64 8
  store i8 0, ptr %15, align 8, !tbaa !211
  %16 = getelementptr inbounds nuw i8, ptr %0, i64 9
  store i8 0, ptr %16, align 1, !tbaa !212
  tail call void @llvm.memset.p0.i64(ptr noundef nonnull align 8 dereferenceable(28) %2, i8 0, i64 28, i1 false)
  tail call void @llvm.memset.p0.i64(ptr noundef nonnull align 8 dereferenceable(28) %3, i8 0, i64 28, i1 false)
  tail call void @llvm.memset.p0.i64(ptr noundef nonnull align 8 dereferenceable(36) %4, i8 0, i64 36, i1 false)
  tail call void @llvm.memset.p0.i64(ptr noundef nonnull align 8 dereferenceable(28) %5, i8 0, i64 28, i1 false)
  tail call void @llvm.memset.p0.i64(ptr noundef nonnull align 8 dereferenceable(36) %6, i8 0, i64 36, i1 false)
  tail call void @llvm.memset.p0.i64(ptr noundef nonnull align 8 dereferenceable(28) %7, i8 0, i64 28, i1 false)
  tail call void @llvm.memset.p0.i64(ptr noundef nonnull align 8 dereferenceable(36) %8, i8 0, i64 36, i1 false)
  tail call void @llvm.memset.p0.i64(ptr noundef nonnull align 8 dereferenceable(28) %9, i8 0, i64 28, i1 false)
  tail call void @llvm.memset.p0.i64(ptr noundef nonnull align 8 dereferenceable(36) %10, i8 0, i64 36, i1 false)
  tail call void @llvm.memset.p0.i64(ptr noundef nonnull align 8 dereferenceable(28) %11, i8 0, i64 28, i1 false)
  tail call void @llvm.memset.p0.i64(ptr noundef nonnull align 8 dereferenceable(36) %12, i8 0, i64 36, i1 false)
  tail call void @llvm.memset.p0.i64(ptr noundef nonnull align 8 dereferenceable(28) %13, i8 0, i64 28, i1 false)
  ret void
}